Certificate:
    Data:
        Version: 3 (0x2)
        Serial Number: 4096 (0x1000)
        Signature Algorithm: sha256WithRSAEncryption
        Issuer: CN=MyCA
        Validity
            Not Before: Jun 28 06:38:16 2025 GMT
            Not After : Jun 28 06:38:16 2026 GMT
        Subject: CN=device1
        Subject Public Key Info:
            Public Key Algorithm: rsaEncryption
                Public-Key: (2048 bit)
                Modulus:
                    00:d3:a0:b4:e9:b7:34:1c:0d:37:23:31:9a:0b:c2:
                    e0:9b:d4:c2:04:15:58:ff:fd:5c:d8:c1:37:a5:ee:
                    0c:85:b6:6d:f9:87:09:6d:87:02:82:7d:a3:79:a3:
                    ca:97:58:de:24:ed:6c:d1:98:b2:e2:eb:47:f3:3b:
                    fd:50:99:99:90:e1:4a:f9:66:ce:92:7c:a1:9e:dc:
                    ad:7b:78:2a:7a:c3:df:0e:56:1c:00:95:c0:dd:ed:
                    8f:3c:67:ff:ca:fb:07:d7:32:f9:ae:e4:a9:10:d1:
                    53:7e:07:56:cc:a2:a9:04:2c:59:bf:f4:6f:62:db:
                    3f:23:a9:32:dd:5e:83:ee:37:b7:1f:49:8e:1d:3b:
                    9e:04:4b:7b:b6:58:0b:a5:52:a9:09:51:18:b4:80:
                    f8:c6:15:56:e0:57:e6:17:60:65:b0:c5:49:79:49:
                    54:c9:c2:87:34:20:99:ed:17:ea:c6:e6:f5:eb:a7:
                    91:e2:ef:c5:49:17:25:85:6e:a6:90:76:79:ff:87:
                    11:81:b8:e1:9b:04:59:eb:36:09:85:b5:28:9c:89:
                    fa:fa:55:f3:18:7a:ee:07:e9:6c:d2:aa:b9:3a:81:
                    e3:80:44:4f:db:4f:d8:c9:ca:ff:40:32:f3:61:fc:
                    1a:a0:e6:41:e9:1f:d8:67:ae:df:d5:ac:3e:01:76:
                    23:19
                Exponent: 65537 (0x10001)
        X509v3 extensions:
            X509v3 Basic Constraints: 
                CA:FALSE
            X509v3 Key Usage: 
                Digital Signature, Key Encipherment
            X509v3 Subject Alternative Name: 
                <EMPTY>

            X509v3 Subject Key Identifier: 
                A9:6D:6B:15:12:6A:24:F4:21:DA:BA:27:F1:DC:D4:CF:BF:90:52:74
            X509v3 Authority Key Identifier: 
                D6:DD:62:FA:24:2C:AA:BC:DD:3F:0C:1A:09:22:5D:D4:71:7F:E8:05
    Signature Algorithm: sha256WithRSAEncryption
    Signature Value:
        3d:7b:d7:3f:34:8c:d4:03:29:32:32:e2:6f:96:86:c9:ee:87:
        43:68:c1:59:cc:17:f7:aa:36:37:41:1d:0e:11:dd:3f:a4:75:
        f8:b9:e9:16:a8:6a:04:68:5e:8e:78:89:11:11:ef:bc:27:ee:
        ee:68:f0:9d:85:3f:79:a4:91:76:71:d4:22:60:a7:f5:8c:7e:
        90:21:18:3a:29:dc:ef:3d:49:07:96:0d:f0:06:a6:0b:8a:1f:
        3c:a0:87:ab:b5:f8:27:38:7b:16:c6:c5:f9:66:53:dd:1a:cd:
        9b:2f:61:e6:3a:46:78:d8:04:a2:16:9d:2d:4e:dd:50:29:21:
        54:2b:12:45:eb:86:0d:9d:b2:9b:f5:df:41:b7:ea:38:f3:0e:
        36:7a:9c:66:e8:ec:af:f6:1d:d0:c3:91:14:41:11:17:79:11:
        e5:12:a6:58:c5:b1:e7:2f:98:01:de:11:76:9d:9c:57:42:a7:
        96:d6:ec:48:9c:0d:4a:6f:45:d3:26:37:d9:2a:28:98:0f:e7:
        5b:a3:e0:52:d7:04:1c:f1:ff:92:fc:a0:f6:da:ee:c4:c4:c4:
        a4:c6:b1:a5:d2:3b:dd:9a:a9:8a:2b:c0:0f:34:13:37:b1:08:
        d6:1e:b4:ec:27:d3:98:3e:6e:e0:e6:2e:42:92:c5:4a:18:1a:
        8e:0d:fd:92
-----BEGIN CERTIFICATE-----
MIIDAjCCAeqgAwIBAgICEAAwDQYJKoZIhvcNAQELBQAwDzENMAsGA1UEAwwETXlD
QTAeFw0yNTA2MjgwNjM4MTZaFw0yNjA2MjgwNjM4MTZaMBIxEDAOBgNVBAMMB2Rl
dmljZTEwggEiMA0GCSqGSIb3DQEBAQUAA4IBDwAwggEKAoIBAQDToLTptzQcDTcj
MZoLwuCb1MIEFVj//VzYwTel7gyFtm35hwlthwKCfaN5o8qXWN4k7WzRmLLi60fz
O/1QmZmQ4Ur5Zs6SfKGe3K17eCp6w98OVhwAlcDd7Y88Z//K+wfXMvmu5KkQ0VN+
B1bMoqkELFm/9G9i2z8jqTLdXoPuN7cfSY4dO54ES3u2WAulUqkJURi0gPjGFVbg
V+YXYGWwxUl5SVTJwoc0IJntF+rG5vXrp5Hi78VJFyWFbqaQdnn/hxGBuOGbBFnr
NgmFtSicifr6VfMYeu4H6WzSqrk6geOARE/bT9jJyv9AMvNh/Bqg5kHpH9hnrt/V
rD4BdiMZAgMBAAGjZTBjMAkGA1UdEwQCMAAwCwYDVR0PBAQDAgWgMAkGA1UdEQQC
MAAwHQYDVR0OBBYEFKltaxUSaiT0Idq6J/Hc1M+/kFJ0MB8GA1UdIwQYMBaAFNbd
YvokLKq83T8MGgkiXdRxf+gFMA0GCSqGSIb3DQEBCwUAA4IBAQA9e9c/NIzUAyky
MuJvlobJ7odDaMFZzBf3qjY3QR0OEd0/pHX4uekWqGoEaF6OeIkREe+8J+7uaPCd
hT95pJF2cdQiYKf1jH6QIRg6KdzvPUkHlg3wBqYLih88oIertfgnOHsWxsX5ZlPd
Gs2bL2HmOkZ42ASiFp0tTt1QKSFUKxJF64YNnbKb9d9Bt+o48w42epxm6Oyv9h3Q
w5EUQREXeRHlEqZYxbHnL5gB3hF2nZxXQqeW1uxInA1Kb0XTJjfZKiiYD+dbo+BS
1wQc8f+S/KD22u7ExMSkxrGl0jvdmqmKK8APNBM3sQjWHrTsJ9OYPm7g5i5CksVK
GBqODf2S
-----END CERTIFICATE-----
