Certificate:
    Data:
        Version: 1 (0x0)
        Serial Number: 4096 (0x1000)
        Signature Algorithm: sha256WithRSAEncryption
        Issuer: C=IN, ST=Kerala, L=Kochi, O=MyOrg, OU=IoT Team, CN=localhost
        Validity
            Not Before: Jul 10 06:50:48 2025 GMT
            Not After : Jul  8 06:50:48 2035 GMT
        Subject: CN=device1
        Subject Public Key Info:
            Public Key Algorithm: rsaEncryption
                Public-Key: (2048 bit)
                Modulus:
                    00:ae:fa:27:d3:e6:38:18:8a:98:6a:51:2e:fb:3c:
                    7e:49:ad:c6:de:5d:83:1b:da:2c:d0:e6:cd:8b:19:
                    8d:68:c7:b9:15:65:40:57:65:cb:ab:a9:29:b1:72:
                    12:93:b7:21:d4:ef:5f:75:aa:10:c6:e8:6a:91:b4:
                    4a:df:b9:e1:fe:5d:6a:d7:4c:37:a5:3c:4d:9a:04:
                    28:86:8f:28:bb:e7:d5:98:eb:a8:c5:d3:3b:f0:e2:
                    6f:de:f4:50:ed:17:d9:fe:7e:5c:4e:cb:b4:5e:72:
                    7c:84:d7:b3:b0:ef:4a:da:f3:ee:b4:57:3a:1b:a0:
                    ad:73:9d:ce:fc:fe:75:3c:a1:ca:a5:8f:bc:6b:eb:
                    56:a1:12:41:2c:4a:8a:da:0f:58:43:aa:af:37:97:
                    c9:3f:b8:74:aa:10:e1:b1:88:9f:36:90:1d:93:d4:
                    5e:b6:88:53:a4:97:f1:cd:30:52:36:c2:e6:84:91:
                    99:50:bb:89:2e:e4:f5:eb:66:a8:00:7c:66:32:d8:
                    f0:bf:3a:a4:bb:49:19:a9:c0:ae:7b:51:c3:47:5d:
                    27:86:53:85:3d:8b:a5:c5:fc:ba:6b:dd:86:c0:56:
                    06:bd:a0:5a:63:a8:4d:1b:74:c5:ff:d0:a4:29:23:
                    16:c9:8b:03:de:0c:59:b5:24:15:67:b0:e5:a6:c7:
                    a1:1f
                Exponent: 65537 (0x10001)
    Signature Algorithm: sha256WithRSAEncryption
    Signature Value:
        2e:6f:e4:f6:79:40:5b:2f:64:87:ed:96:87:e6:dd:f5:44:32:
        dd:c5:a2:57:6d:1e:49:30:73:38:f8:9e:b8:96:7f:f4:68:08:
        ce:66:2b:3a:97:83:f5:74:70:37:71:4b:4a:f4:5e:19:4f:3d:
        ea:f0:0e:60:ac:7b:64:71:a2:7a:28:4b:cf:4c:83:35:40:1e:
        1e:74:5a:83:ef:36:f9:fc:0b:2e:2a:cd:72:45:9e:5c:8f:57:
        e7:53:5f:16:ea:03:f1:38:13:bd:9a:ae:74:52:ea:ef:17:4e:
        81:d2:5e:e5:b1:40:8e:0a:1e:24:12:88:2d:0b:7e:72:a3:73:
        c1:d9:11:b5:d8:34:3e:09:7f:5d:96:82:95:1d:ae:b1:94:4d:
        ac:69:ce:62:34:b7:1c:31:81:55:41:fa:16:bc:03:b7:97:61:
        e1:17:84:aa:e3:91:2a:cf:e9:49:69:44:68:63:9c:fe:59:53:
        80:8c:ea:bf:d1:4e:b8:0b:52:e3:bb:86:35:0c:13:e2:d1:fc:
        9e:bc:97:f4:04:21:ed:4d:33:bf:6a:dc:cc:db:28:36:e4:cb:
        e6:61:a0:cf:8b:d2:b1:61:5a:2a:2d:f3:09:ad:4f:9e:f4:77:
        38:ea:d8:b6:bb:96:42:ce:0b:ea:1d:ed:36:39:d0:40:a7:0b:
        ca:b3:85:57
-----BEGIN CERTIFICATE-----
MIIC7DCCAdQCAhAAMA0GCSqGSIb3DQEBCwUAMGUxCzAJBgNVBAYTAklOMQ8wDQYD
VQQIDAZLZXJhbGExDjAMBgNVBAcMBUtvY2hpMQ4wDAYDVQQKDAVNeU9yZzERMA8G
A1UECwwISW9UIFRlYW0xEjAQBgNVBAMMCWxvY2FsaG9zdDAeFw0yNTA3MTAwNjUw
NDhaFw0zNTA3MDgwNjUwNDhaMBIxEDAOBgNVBAMMB2RldmljZTEwggEiMA0GCSqG
SIb3DQEBAQUAA4IBDwAwggEKAoIBAQCu+ifT5jgYiphqUS77PH5JrcbeXYMb2izQ
5s2LGY1ox7kVZUBXZcurqSmxchKTtyHU7191qhDG6GqRtErfueH+XWrXTDelPE2a
BCiGjyi759WY66jF0zvw4m/e9FDtF9n+flxOy7RecnyE17Ow70ra8+60VzoboK1z
nc78/nU8ocqlj7xr61ahEkEsSoraD1hDqq83l8k/uHSqEOGxiJ82kB2T1F62iFOk
l/HNMFI2wuaEkZlQu4ku5PXrZqgAfGYy2PC/OqS7SRmpwK57UcNHXSeGU4U9i6XF
/Lpr3YbAVga9oFpjqE0bdMX/0KQpIxbJiwPeDFm1JBVnsOWmx6EfAgMBAAEwDQYJ
KoZIhvcNAQELBQADggEBAC5v5PZ5QFsvZIftlofm3fVEMt3FoldtHkkwczj4nriW
f/RoCM5mKzqXg/V0cDdxS0r0XhlPPerwDmCse2RxonooS89MgzVAHh50WoPvNvn8
Cy4qzXJFnlyPV+dTXxbqA/E4E72arnRS6u8XToHSXuWxQI4KHiQSiC0LfnKjc8HZ
EbXYND4Jf12WgpUdrrGUTaxpzmI0txwxgVVB+ha8A7eXYeEXhKrjkSrP6UlpRGhj
nP5ZU4CM6r/RTrgLUuO7hjUME+LR/J68l/QEIe1NM79q3MzbKDbky+ZhoM+L0rFh
Wiot8wmtT570dzjq2La7lkLOC+od7TY50ECnC8qzhVc=
-----END CERTIFICATE-----
