Certificate:
    Data:
        Version: 3 (0x2)
        Serial Number: 4097 (0x1001)
        Signature Algorithm: sha256WithRSAEncryption
        Issuer: C=IN, ST=Kerala, L=Kochi, O=MyOrg, OU=IoT Team, CN=localhost
        Validity
            Not Before: Jul 14 08:55:08 2025 GMT
            Not After : Jul 12 08:55:08 2035 GMT
        Subject: CN=device1
        Subject Public Key Info:
            Public Key Algorithm: rsaEncryption
                Public-Key: (2048 bit)
                Modulus:
                    00:bc:ae:99:db:0c:74:ed:40:06:92:d1:fc:91:28:
                    12:9a:04:68:15:bd:62:15:db:9f:f6:bc:f9:39:ea:
                    61:27:6f:94:41:60:3a:63:63:f5:8d:6c:f8:48:0a:
                    da:1d:0c:b6:65:42:f0:32:f4:be:fb:a7:5b:1d:16:
                    a2:55:d9:ad:22:4d:f1:c7:7c:4d:4d:8c:46:76:6c:
                    84:d7:ee:42:87:81:d1:7b:51:f8:fb:06:f9:2b:f9:
                    01:e8:fa:c8:93:e1:39:f5:6b:f6:7c:8a:1e:d7:5d:
                    9e:29:e7:2e:9c:86:e6:0d:f9:c7:22:85:7e:bf:a7:
                    80:a9:9d:97:67:1d:e4:fa:01:bb:98:bb:a5:82:97:
                    1b:08:11:3e:96:42:b3:be:8b:ce:ee:62:a6:c0:61:
                    4b:8d:ce:a5:82:0a:25:23:ed:6c:77:e8:29:11:31:
                    0c:d8:d1:4f:93:a8:7e:64:d7:84:f7:41:e6:81:7f:
                    ea:0e:4b:a1:65:d6:35:3a:1e:52:41:48:e1:7e:07:
                    4b:68:66:34:a0:43:d4:2a:2b:69:5b:6b:a7:7e:70:
                    51:89:e2:e2:ee:7e:bc:da:d9:b1:d7:bf:99:1c:34:
                    b9:28:62:9b:1f:77:e7:5f:a5:d3:29:73:69:66:62:
                    94:b2:48:48:87:ed:c2:7e:5b:69:6e:5c:f9:93:f8:
                    f1:e3
                Exponent: 65537 (0x10001)
        X509v3 extensions:
            X509v3 Subject Key Identifier: 
                AA:93:C0:0A:09:6E:DF:2B:F1:C4:F2:4C:A4:1B:D6:30:C1:64:77:27
            X509v3 Authority Key Identifier: 
                D6:DD:62:FA:24:2C:AA:BC:DD:3F:0C:1A:09:22:5D:D4:71:7F:E8:05
    Signature Algorithm: sha256WithRSAEncryption
    Signature Value:
        7e:39:53:21:66:60:62:90:9c:73:ea:c2:72:2e:db:2c:86:f7:
        2d:0d:21:3f:13:e7:0e:b6:82:39:13:60:40:45:89:be:96:b0:
        b2:f4:b7:c2:c5:c8:08:fa:97:c0:f6:8e:24:49:04:8d:31:39:
        bc:53:ee:3b:fb:0e:81:dc:e3:49:cb:82:08:c2:29:76:89:8a:
        19:f8:3d:11:05:92:8c:f7:6a:e8:86:6c:44:78:37:37:00:26:
        e4:92:2e:55:2b:58:6f:ae:16:43:8e:f7:a9:69:09:d2:32:9e:
        f7:0c:c8:7d:3b:32:26:23:be:c5:fb:41:0f:d2:70:07:0d:95:
        6b:de:bc:be:fe:d4:c0:7a:6b:e6:c8:18:e2:38:18:4e:a4:15:
        e9:a5:a1:13:2d:37:12:44:5b:bc:83:7a:fa:1e:bf:c5:35:35:
        00:4d:00:45:54:c8:21:2c:3e:60:a6:04:12:5d:17:9b:64:81:
        c4:d4:24:4f:cc:fe:bd:47:50:d9:a1:57:fa:04:8d:11:89:74:
        20:64:8e:e3:c0:b8:93:de:6a:37:74:3f:c9:f7:77:89:6e:d5:
        af:55:ef:60:54:4d:4b:cc:77:ce:53:6d:d9:ca:46:40:32:79:
        76:60:fe:67:8d:68:90:be:b6:ec:be:54:05:b8:c6:1f:4b:82:
        b2:0e:3f:54
-----BEGIN CERTIFICATE-----
MIIDNTCCAh2gAwIBAgICEAEwDQYJKoZIhvcNAQELBQAwZTELMAkGA1UEBhMCSU4x
DzANBgNVBAgMBktlcmFsYTEOMAwGA1UEBwwFS29jaGkxDjAMBgNVBAoMBU15T3Jn
MREwDwYDVQQLDAhJb1QgVGVhbTESMBAGA1UEAwwJbG9jYWxob3N0MB4XDTI1MDcx
NDA4NTUwOFoXDTM1MDcxMjA4NTUwOFowEjEQMA4GA1UEAwwHZGV2aWNlMTCCASIw
DQYJKoZIhvcNAQEBBQADggEPADCCAQoCggEBALyumdsMdO1ABpLR/JEoEpoEaBW9
YhXbn/a8+TnqYSdvlEFgOmNj9Y1s+EgK2h0MtmVC8DL0vvunWx0WolXZrSJN8cd8
TU2MRnZshNfuQoeB0XtR+PsG+Sv5Aej6yJPhOfVr9nyKHtddninnLpyG5g35xyKF
fr+ngKmdl2cd5PoBu5i7pYKXGwgRPpZCs76Lzu5ipsBhS43OpYIKJSPtbHfoKREx
DNjRT5OofmTXhPdB5oF/6g5LoWXWNToeUkFI4X4HS2hmNKBD1CoraVtrp35wUYni
4u5+vNrZsde/mRw0uShimx9351+l0ylzaWZilLJISIftwn5baW5c+ZP48eMCAwEA
AaNCMEAwHQYDVR0OBBYEFKqTwAoJbt8r8cTyTKQb1jDBZHcnMB8GA1UdIwQYMBaA
FNbdYvokLKq83T8MGgkiXdRxf+gFMA0GCSqGSIb3DQEBCwUAA4IBAQB+OVMhZmBi
kJxz6sJyLtsshvctDSE/E+cOtoI5E2BARYm+lrCy9LfCxcgI+pfA9o4kSQSNMTm8
U+47+w6B3ONJy4IIwil2iYoZ+D0RBZKM92rohmxEeDc3ACbkki5VK1hvrhZDjvep
aQnSMp73DMh9OzImI77F+0EP0nAHDZVr3ry+/tTAemvmyBjiOBhOpBXppaETLTcS
RFu8g3r6Hr/FNTUATQBFVMghLD5gpgQSXRebZIHE1CRPzP69R1DZoVf6BI0RiXQg
ZI7jwLiT3mo3dD/J93eJbtWvVe9gVE1LzHfOU23ZykZAMnl2YP5njWiQvrbsvlQF
uMYfS4KyDj9U
-----END CERTIFICATE-----
