Certificate:
    Data:
        Version: 3 (0x2)
        Serial Number: 4098 (0x1002)
        Signature Algorithm: sha256WithRSAEncryption
        Issuer: C=IN, ST=Kerala, L=Kochi, O=MyOrg, OU=IoT Team, CN=localhost
        Validity
            Not Before: Jul 14 11:43:20 2025 GMT
            Not After : Jul 12 11:43:20 2035 GMT
        Subject: CN=device2
        Subject Public Key Info:
            Public Key Algorithm: rsaEncryption
                Public-Key: (2048 bit)
                Modulus:
                    00:c5:63:9c:7e:3c:da:ef:c7:e3:c3:bd:b8:52:8b:
                    e9:b3:b8:b2:cc:89:da:2b:94:0a:77:6c:7d:e8:ff:
                    08:17:4d:0c:86:93:e0:66:e4:36:bb:d4:d7:9f:19:
                    10:6a:3e:e4:2c:36:99:dc:f5:ff:5a:6a:28:82:5e:
                    19:31:a0:d5:78:31:1d:13:f6:b0:c5:02:69:85:ff:
                    c6:2e:95:bb:e5:2d:d1:99:b5:7d:fd:c5:2e:79:10:
                    27:ea:b1:c8:f1:11:4a:a8:1d:9f:a1:fd:1f:4c:fe:
                    9e:c7:71:be:d7:3c:b0:86:34:54:3d:49:76:f6:bd:
                    84:03:23:fa:d9:26:eb:10:cb:08:de:34:0d:fc:2a:
                    40:5b:d1:6c:ff:da:98:e7:c5:8d:2a:78:d4:82:8a:
                    0e:54:ca:aa:1c:79:27:ca:14:0f:c1:46:5f:03:6c:
                    1f:b2:71:67:52:f1:a3:f8:87:ac:32:19:97:c4:5a:
                    58:cc:c1:de:e7:f5:fe:5c:e8:10:7a:c4:d4:e1:41:
                    6d:5b:f4:60:5a:85:be:29:f1:46:64:64:43:b5:6a:
                    e9:9c:bd:92:b5:0c:99:cc:bf:63:b5:43:27:81:eb:
                    8f:3c:8e:8e:62:ff:a7:8f:09:38:57:34:be:70:d0:
                    54:55:87:ff:d7:98:a1:d8:1c:c4:77:1c:bf:57:be:
                    3e:a3
                Exponent: 65537 (0x10001)
        X509v3 extensions:
            X509v3 Subject Key Identifier: 
                A6:62:DA:8A:69:DF:F7:7D:44:17:8C:4F:F6:34:0D:54:F6:5D:BF:EE
            X509v3 Authority Key Identifier: 
                D6:DD:62:FA:24:2C:AA:BC:DD:3F:0C:1A:09:22:5D:D4:71:7F:E8:05
    Signature Algorithm: sha256WithRSAEncryption
    Signature Value:
        77:6b:a5:9f:5a:31:43:90:46:30:e2:79:e6:d0:00:ec:16:fa:
        29:d3:5e:00:47:51:e1:bf:32:db:40:2f:b8:bf:e9:31:0f:35:
        50:5b:12:0f:d3:03:66:4c:7d:05:1b:57:b2:e1:e9:bb:23:71:
        d7:fc:65:a6:25:ed:12:68:a3:a1:b6:02:fe:c9:7f:7c:cc:40:
        2b:9a:75:32:13:f5:28:8c:ae:9e:92:bf:90:0f:ad:be:16:24:
        21:bb:a1:74:fc:a4:d9:66:be:e8:51:96:94:45:e0:8d:63:89:
        a6:06:09:64:9b:e1:70:81:2c:c9:40:61:6c:a3:0b:19:4c:50:
        cc:a2:dc:27:c6:13:e4:9a:24:5e:73:60:bd:97:e4:0e:62:8b:
        98:a3:9f:88:63:7b:14:86:71:0b:83:6f:4a:a0:b8:26:01:3c:
        1a:e8:d6:a3:33:3f:71:2e:88:0b:32:bb:bc:d0:af:64:c7:fe:
        95:ea:fc:8c:1d:46:41:38:b4:3e:de:27:ba:9c:be:88:f1:96:
        84:a6:a0:d3:ed:b0:2f:bb:ba:7f:84:91:1e:a2:b0:24:48:7d:
        34:f8:5d:1a:cd:5d:ea:11:2e:1c:1a:84:d0:fa:b7:69:ee:42:
        4e:95:12:21:8b:57:b2:52:9c:a3:6a:2a:19:4a:16:c5:90:42:
        40:fe:1b:4d
-----BEGIN CERTIFICATE-----
MIIDNTCCAh2gAwIBAgICEAIwDQYJKoZIhvcNAQELBQAwZTELMAkGA1UEBhMCSU4x
DzANBgNVBAgMBktlcmFsYTEOMAwGA1UEBwwFS29jaGkxDjAMBgNVBAoMBU15T3Jn
MREwDwYDVQQLDAhJb1QgVGVhbTESMBAGA1UEAwwJbG9jYWxob3N0MB4XDTI1MDcx
NDExNDMyMFoXDTM1MDcxMjExNDMyMFowEjEQMA4GA1UEAwwHZGV2aWNlMjCCASIw
DQYJKoZIhvcNAQEBBQADggEPADCCAQoCggEBAMVjnH482u/H48O9uFKL6bO4ssyJ
2iuUCndsfej/CBdNDIaT4GbkNrvU158ZEGo+5Cw2mdz1/1pqKIJeGTGg1XgxHRP2
sMUCaYX/xi6Vu+Ut0Zm1ff3FLnkQJ+qxyPERSqgdn6H9H0z+nsdxvtc8sIY0VD1J
dva9hAMj+tkm6xDLCN40DfwqQFvRbP/amOfFjSp41IKKDlTKqhx5J8oUD8FGXwNs
H7JxZ1Lxo/iHrDIZl8RaWMzB3uf1/lzoEHrE1OFBbVv0YFqFvinxRmRkQ7Vq6Zy9
krUMmcy/Y7VDJ4HrjzyOjmL/p48JOFc0vnDQVFWH/9eYodgcxHccv1e+PqMCAwEA
AaNCMEAwHQYDVR0OBBYEFKZi2opp3/d9RBeMT/Y0DVT2Xb/uMB8GA1UdIwQYMBaA
FNbdYvokLKq83T8MGgkiXdRxf+gFMA0GCSqGSIb3DQEBCwUAA4IBAQB3a6WfWjFD
kEYw4nnm0ADsFvop014AR1HhvzLbQC+4v+kxDzVQWxIP0wNmTH0FG1ey4em7I3HX
/GWmJe0SaKOhtgL+yX98zEArmnUyE/UojK6ekr+QD62+FiQhu6F0/KTZZr7oUZaU
ReCNY4mmBglkm+FwgSzJQGFsowsZTFDMotwnxhPkmiRec2C9l+QOYouYo5+IY3sU
hnELg29KoLgmATwa6NajMz9xLogLMru80K9kx/6V6vyMHUZBOLQ+3ie6nL6I8ZaE
pqDT7bAvu7p/hJEeorAkSH00+F0azV3qES4cGoTQ+rdp7kJOlRIhi1eyUpyjaioZ
ShbFkEJA/htN
-----END CERTIFICATE-----
