Certificate:
    Data:
        Version: 3 (0x2)
        Serial Number: 4099 (0x1003)
        Signature Algorithm: sha256WithRSAEncryption
        Issuer: C=IN, ST=Kerala, L=Kochi, O=MyOrg, OU=IoT Team, CN=localhost
        Validity
            Not Before: Jul 14 11:43:35 2025 GMT
            Not After : Jul 12 11:43:35 2035 GMT
        Subject: CN=device3
        Subject Public Key Info:
            Public Key Algorithm: rsaEncryption
                Public-Key: (2048 bit)
                Modulus:
                    00:b7:78:75:24:1d:4e:2b:59:d8:60:65:4f:da:67:
                    bb:d8:9c:48:37:0c:32:9a:b8:66:b7:7e:d6:71:94:
                    87:ce:72:e5:3c:24:89:a4:29:c7:f9:05:74:9d:6b:
                    47:ad:30:28:40:ec:f9:a7:9d:d2:7c:86:7c:eb:5e:
                    7e:f6:ac:20:07:2f:56:99:47:d2:5f:e4:e3:f4:54:
                    87:99:ed:f9:8c:ae:af:30:62:89:d1:5c:06:7a:0a:
                    0c:41:ef:a0:06:5c:cc:f3:74:3c:e5:76:14:28:76:
                    10:19:cb:f6:71:50:6f:42:b2:0b:4c:5d:e0:a0:3e:
                    05:2f:a5:3c:45:2f:59:52:78:ec:ca:97:5c:52:9a:
                    8c:9e:32:2a:6f:0f:69:23:ea:89:41:e9:dc:8a:28:
                    df:5c:a2:84:e4:46:8d:9d:cc:2b:45:44:72:29:29:
                    ec:f6:a7:a0:8e:6d:fd:42:96:e3:56:37:00:85:be:
                    46:05:d3:94:92:76:a8:ed:9e:8f:69:5c:27:1f:66:
                    c5:53:72:94:6b:76:28:80:49:39:93:d3:0e:8a:06:
                    a3:e8:96:85:a1:b7:af:6c:5d:00:aa:07:0e:7c:ca:
                    68:fb:2f:fd:85:09:74:fc:11:db:b4:21:d1:20:96:
                    e6:41:bc:4c:23:25:cc:0b:98:34:e3:a0:78:2d:d1:
                    5b:e5
                Exponent: 65537 (0x10001)
        X509v3 extensions:
            X509v3 Subject Key Identifier: 
                C7:40:CB:D6:F8:5D:C5:87:7A:87:E2:F0:6D:53:E0:B6:F3:E4:08:CD
            X509v3 Authority Key Identifier: 
                D6:DD:62:FA:24:2C:AA:BC:DD:3F:0C:1A:09:22:5D:D4:71:7F:E8:05
    Signature Algorithm: sha256WithRSAEncryption
    Signature Value:
        2b:5b:76:d7:81:4b:42:87:9f:5d:f6:c5:d3:7f:93:26:6f:07:
        7f:8f:f7:68:a5:f9:49:58:54:92:31:24:db:31:20:21:6b:68:
        a1:fd:94:8c:13:6b:ff:ae:40:58:89:67:97:4e:0f:f5:30:22:
        28:46:ea:e8:b0:3b:79:bc:46:76:23:3a:6a:12:c4:98:7d:08:
        28:75:a5:db:50:bb:41:23:b4:0d:40:3f:bc:14:4b:c2:ae:b5:
        bd:9c:0c:fd:5b:d2:74:ed:a8:9f:51:ac:f4:30:93:bc:f7:e6:
        06:31:90:a0:59:4d:a9:4c:35:1e:03:92:03:92:dc:14:e1:a6:
        b6:bf:51:81:db:bc:24:05:66:7a:b3:dd:29:f0:f9:43:c8:06:
        09:f5:28:84:04:cc:23:f1:c5:dc:9d:b6:e1:d5:60:94:51:fb:
        02:e9:70:31:55:a1:4f:6c:31:68:9a:66:f4:c4:8d:f0:16:c1:
        6d:75:bf:95:d0:b4:c6:f5:69:85:36:1a:2a:3f:fc:9c:e9:a9:
        bf:21:1c:aa:36:45:b8:97:22:57:22:36:f9:04:dc:57:57:4d:
        98:50:44:08:ee:35:69:d9:7b:fc:8c:ff:c9:b6:fd:86:01:e5:
        50:99:e7:4f:35:1b:6a:d9:b3:fb:49:f4:8a:3f:4c:39:74:da:
        d5:87:af:53
-----BEGIN CERTIFICATE-----
MIIDNTCCAh2gAwIBAgICEAMwDQYJKoZIhvcNAQELBQAwZTELMAkGA1UEBhMCSU4x
DzANBgNVBAgMBktlcmFsYTEOMAwGA1UEBwwFS29jaGkxDjAMBgNVBAoMBU15T3Jn
MREwDwYDVQQLDAhJb1QgVGVhbTESMBAGA1UEAwwJbG9jYWxob3N0MB4XDTI1MDcx
NDExNDMzNVoXDTM1MDcxMjExNDMzNVowEjEQMA4GA1UEAwwHZGV2aWNlMzCCASIw
DQYJKoZIhvcNAQEBBQADggEPADCCAQoCggEBALd4dSQdTitZ2GBlT9pnu9icSDcM
Mpq4Zrd+1nGUh85y5TwkiaQpx/kFdJ1rR60wKEDs+aed0nyGfOtefvasIAcvVplH
0l/k4/RUh5nt+YyurzBiidFcBnoKDEHvoAZczPN0POV2FCh2EBnL9nFQb0KyC0xd
4KA+BS+lPEUvWVJ47MqXXFKajJ4yKm8PaSPqiUHp3Ioo31yihORGjZ3MK0VEcikp
7PanoI5t/UKW41Y3AIW+RgXTlJJ2qO2ej2lcJx9mxVNylGt2KIBJOZPTDooGo+iW
haG3r2xdAKoHDnzKaPsv/YUJdPwR27Qh0SCW5kG8TCMlzAuYNOOgeC3RW+UCAwEA
AaNCMEAwHQYDVR0OBBYEFMdAy9b4XcWHeofi8G1T4Lbz5AjNMB8GA1UdIwQYMBaA
FNbdYvokLKq83T8MGgkiXdRxf+gFMA0GCSqGSIb3DQEBCwUAA4IBAQArW3bXgUtC
h59d9sXTf5Mmbwd/j/dopflJWFSSMSTbMSAha2ih/ZSME2v/rkBYiWeXTg/1MCIo
RurosDt5vEZ2IzpqEsSYfQgodaXbULtBI7QNQD+8FEvCrrW9nAz9W9J07aifUaz0
MJO89+YGMZCgWU2pTDUeA5IDktwU4aa2v1GB27wkBWZ6s90p8PlDyAYJ9SiEBMwj
8cXcnbbh1WCUUfsC6XAxVaFPbDFommb0xI3wFsFtdb+V0LTG9WmFNhoqP/yc6am/
IRyqNkW4lyJXIjb5BNxXV02YUEQI7jVp2Xv8jP/Jtv2GAeVQmedPNRtq2bP7SfSK
P0w5dNrVh69T
-----END CERTIFICATE-----
