Certificate:
    Data:
        Version: 3 (0x2)
        Serial Number: 4100 (0x1004)
        Signature Algorithm: sha256WithRSAEncryption
        Issuer: C=IN, ST=Kerala, L=Kochi, O=MyOrg, OU=IoT Team, CN=localhost
        Validity
            Not Before: Jul 15 07:07:32 2025 GMT
            Not After : Jul 13 07:07:32 2035 GMT
        Subject: CN=device4
        Subject Public Key Info:
            Public Key Algorithm: rsaEncryption
                Public-Key: (2048 bit)
                Modulus:
                    00:8b:0e:90:e9:ca:5d:94:11:6e:f2:e5:6a:86:de:
                    f0:c7:a3:a8:ca:32:6d:6b:4f:9c:d9:03:4a:6f:eb:
                    ef:dd:02:fd:f1:d0:ed:71:e3:af:b3:5a:9e:4e:5d:
                    5f:40:cd:10:95:07:ca:a5:d9:03:35:19:71:58:43:
                    ad:69:1e:dd:c3:c8:9b:0a:34:ac:1f:fe:2b:6d:de:
                    33:76:de:b2:36:9f:e5:c0:6e:06:f2:20:ee:6f:47:
                    01:1a:6c:9a:55:9d:84:8b:f9:cc:5f:f0:d8:7a:ef:
                    c3:1d:8d:33:20:86:2c:f9:72:08:ee:4c:f2:0e:75:
                    3f:97:d3:9c:bc:b0:09:15:26:77:b1:21:4f:85:46:
                    e9:25:e3:8b:f6:29:a9:23:36:2f:73:93:9f:df:fc:
                    cc:8a:5c:3d:62:38:9f:4c:67:3c:df:8c:d9:0a:32:
                    d0:04:9b:36:fb:0e:2f:04:73:27:03:75:4a:26:69:
                    0c:c9:14:01:fd:01:37:df:88:e3:41:d0:54:9f:70:
                    3a:b1:8f:86:2f:ce:67:66:37:cf:54:b9:aa:b6:f2:
                    21:4b:17:9c:f8:f6:fa:89:6c:46:84:0f:07:40:1a:
                    20:ba:f8:25:94:00:af:9f:07:df:34:6c:72:fa:da:
                    06:95:29:7a:e6:c9:73:eb:9d:e1:04:8b:1c:de:b4:
                    97:9d
                Exponent: 65537 (0x10001)
        X509v3 extensions:
            X509v3 Subject Key Identifier: 
                94:59:9D:3D:A7:14:E3:8E:29:CE:ED:62:56:DC:69:5F:20:4B:2B:CA
            X509v3 Authority Key Identifier: 
                D6:DD:62:FA:24:2C:AA:BC:DD:3F:0C:1A:09:22:5D:D4:71:7F:E8:05
    Signature Algorithm: sha256WithRSAEncryption
    Signature Value:
        26:3a:6b:48:20:bd:ac:1f:05:71:cb:a9:9d:03:e3:3c:98:13:
        94:b2:b1:6d:9b:4d:75:02:f4:6d:72:58:fd:99:c6:c4:77:19:
        76:1d:6a:85:49:45:3d:cc:2e:2b:a0:1e:0e:76:e2:0b:c3:e3:
        b3:65:b8:76:44:6a:2e:49:01:77:d9:77:38:98:51:ec:11:de:
        1a:46:38:bf:e5:d4:5b:a2:5d:c9:24:bd:93:1a:58:21:04:b0:
        20:da:1c:c2:b1:db:18:84:a0:a3:34:8a:5f:0b:50:1c:3e:5b:
        32:3a:1c:15:ef:6c:01:d2:f5:de:c3:5b:e3:32:c1:2a:8f:5c:
        2f:ea:72:0f:fd:4e:06:68:94:23:d2:b7:63:50:0b:36:81:f6:
        b7:f8:d5:dd:61:bf:7c:ed:4a:de:ae:c1:a6:1a:7e:f1:4d:2e:
        d8:f5:56:48:f4:b1:53:cb:2e:22:d6:98:7f:fd:cf:36:20:10:
        9d:7c:e8:61:60:81:17:92:de:56:18:b9:e9:bc:1f:53:1a:13:
        af:8b:dd:ff:81:46:45:71:59:f0:8c:47:6a:96:f1:5f:ee:74:
        00:cf:2d:c6:54:3f:85:ec:a2:97:85:17:2f:52:49:ea:bc:12:
        a3:f4:73:b7:2a:b2:5d:6b:76:9c:16:16:05:3c:ca:8c:a9:b3:
        3e:46:19:71
-----BEGIN CERTIFICATE-----
MIIDNTCCAh2gAwIBAgICEAQwDQYJKoZIhvcNAQELBQAwZTELMAkGA1UEBhMCSU4x
DzANBgNVBAgMBktlcmFsYTEOMAwGA1UEBwwFS29jaGkxDjAMBgNVBAoMBU15T3Jn
MREwDwYDVQQLDAhJb1QgVGVhbTESMBAGA1UEAwwJbG9jYWxob3N0MB4XDTI1MDcx
NTA3MDczMloXDTM1MDcxMzA3MDczMlowEjEQMA4GA1UEAwwHZGV2aWNlNDCCASIw
DQYJKoZIhvcNAQEBBQADggEPADCCAQoCggEBAIsOkOnKXZQRbvLlaobe8MejqMoy
bWtPnNkDSm/r790C/fHQ7XHjr7Nank5dX0DNEJUHyqXZAzUZcVhDrWke3cPImwo0
rB/+K23eM3besjaf5cBuBvIg7m9HARpsmlWdhIv5zF/w2Hrvwx2NMyCGLPlyCO5M
8g51P5fTnLywCRUmd7EhT4VG6SXji/YpqSM2L3OTn9/8zIpcPWI4n0xnPN+M2Qoy
0ASbNvsOLwRzJwN1SiZpDMkUAf0BN9+I40HQVJ9wOrGPhi/OZ2Y3z1S5qrbyIUsX
nPj2+olsRoQPB0AaILr4JZQAr58H3zRscvraBpUpeubJc+ud4QSLHN60l50CAwEA
AaNCMEAwHQYDVR0OBBYEFJRZnT2nFOOOKc7tYlbcaV8gSyvKMB8GA1UdIwQYMBaA
FNbdYvokLKq83T8MGgkiXdRxf+gFMA0GCSqGSIb3DQEBCwUAA4IBAQAmOmtIIL2s
HwVxy6mdA+M8mBOUsrFtm011AvRtclj9mcbEdxl2HWqFSUU9zC4roB4OduILw+Oz
Zbh2RGouSQF32Xc4mFHsEd4aRji/5dRbol3JJL2TGlghBLAg2hzCsdsYhKCjNIpf
C1AcPlsyOhwV72wB0vXew1vjMsEqj1wv6nIP/U4GaJQj0rdjUAs2gfa3+NXdYb98
7UrersGmGn7xTS7Y9VZI9LFTyy4i1ph//c82IBCdfOhhYIEXkt5WGLnpvB9TGhOv
i93/gUZFcVnwjEdqlvFf7nQAzy3GVD+F7KKXhRcvUknqvBKj9HO3KrJda3acFhYF
PMqMqbM+Rhlx
-----END CERTIFICATE-----
