Certificate:
    Data:
        Version: 3 (0x2)
        Serial Number: 4101 (0x1005)
        Signature Algorithm: sha256WithRSAEncryption
        Issuer: C=IN, ST=Kerala, L=Kochi, O=MyOrg, OU=IoT Team, CN=localhost
        Validity
            Not Before: Jul 15 10:41:31 2025 GMT
            Not After : Jul 13 10:41:31 2035 GMT
        Subject: CN=device6
        Subject Public Key Info:
            Public Key Algorithm: rsaEncryption
                Public-Key: (2048 bit)
                Modulus:
                    00:a3:b4:33:33:e0:14:83:35:f6:f2:c1:54:15:ee:
                    24:91:0d:28:b1:fb:9c:64:66:6a:9c:74:1c:75:45:
                    62:01:1e:d8:68:ec:6c:ce:95:0f:89:0a:b1:5e:53:
                    40:81:99:e3:3b:24:cd:a6:f8:f2:d3:d4:b9:0b:1d:
                    24:94:3c:08:e5:4d:49:95:ee:f5:4a:e9:0f:76:10:
                    b4:05:f5:eb:01:6a:1c:58:1f:a7:78:af:ea:c1:f9:
                    58:d5:e0:52:d5:bb:0b:b8:74:41:f4:77:12:e0:3f:
                    71:d5:90:2e:1e:b8:25:07:18:27:39:59:80:ad:e4:
                    dd:4b:0b:01:73:6d:85:0a:d0:5f:54:87:d5:1a:40:
                    35:fb:3c:80:b9:5f:75:ab:34:52:68:52:b5:58:29:
                    40:a2:8b:ba:fc:ac:b6:7a:70:c0:f1:dd:04:c8:02:
                    7e:d0:25:d3:ca:cc:c5:84:77:ce:5c:8b:75:9d:59:
                    3a:ed:35:85:f5:6c:ab:fc:cb:9e:d2:9b:0b:46:bf:
                    a8:1a:93:ce:5f:f0:b3:8e:1f:1e:86:36:57:38:5d:
                    a8:a9:d2:b4:c3:6d:06:eb:76:c0:70:fe:1c:48:94:
                    af:d5:d8:41:24:5e:3d:38:19:f8:6b:a7:c8:bb:83:
                    36:07:94:33:7c:e0:3c:46:d3:73:3f:fb:96:6e:87:
                    13:ff
                Exponent: 65537 (0x10001)
        X509v3 extensions:
            X509v3 Subject Key Identifier: 
                77:CE:BE:AB:58:BB:D2:B3:FA:51:D1:E2:F7:AA:44:37:39:35:B5:AA
            X509v3 Authority Key Identifier: 
                D6:DD:62:FA:24:2C:AA:BC:DD:3F:0C:1A:09:22:5D:D4:71:7F:E8:05
    Signature Algorithm: sha256WithRSAEncryption
    Signature Value:
        3d:f0:db:f6:a8:0e:24:35:da:32:88:82:00:07:f8:17:e6:be:
        8a:b6:3d:99:39:b9:4d:77:02:34:71:29:7d:a2:48:21:ca:31:
        89:4d:eb:6c:b7:7c:53:82:40:e6:3e:fe:07:5f:ac:b4:76:72:
        c0:3b:48:dd:cd:2b:7c:5b:82:e0:ca:72:33:5b:1a:14:c3:40:
        6c:47:13:e8:8b:8f:87:41:4b:44:03:37:12:6e:d1:a0:8d:64:
        2f:f9:ae:ca:fe:6a:a1:32:4f:e1:ca:36:48:71:e3:23:ce:0d:
        b9:80:65:15:7d:70:58:7a:be:f2:6c:92:21:3c:51:27:d7:da:
        6f:66:28:59:f5:33:a9:74:3d:86:ec:33:af:be:95:c4:a6:e1:
        4c:d7:b5:18:08:0f:80:bb:5e:e8:e3:f9:c3:17:f3:23:49:d2:
        e0:82:f2:89:ab:00:d3:c7:34:62:ed:11:0e:0e:25:5b:fd:d7:
        23:36:b2:cf:75:06:77:1a:97:7e:42:23:34:6d:17:8e:32:cd:
        67:b0:ef:55:92:c0:e4:48:14:19:cc:f2:34:31:c2:f8:c9:7a:
        2f:a8:63:5e:19:a4:17:f2:f0:63:95:8f:63:08:df:1e:0f:d5:
        cf:d8:75:e1:da:2b:c2:f9:24:e9:59:7d:1b:e4:55:d8:2b:a5:
        32:5f:f9:95
-----BEGIN CERTIFICATE-----
MIIDNTCCAh2gAwIBAgICEAUwDQYJKoZIhvcNAQELBQAwZTELMAkGA1UEBhMCSU4x
DzANBgNVBAgMBktlcmFsYTEOMAwGA1UEBwwFS29jaGkxDjAMBgNVBAoMBU15T3Jn
MREwDwYDVQQLDAhJb1QgVGVhbTESMBAGA1UEAwwJbG9jYWxob3N0MB4XDTI1MDcx
NTEwNDEzMVoXDTM1MDcxMzEwNDEzMVowEjEQMA4GA1UEAwwHZGV2aWNlNjCCASIw
DQYJKoZIhvcNAQEBBQADggEPADCCAQoCggEBAKO0MzPgFIM19vLBVBXuJJENKLH7
nGRmapx0HHVFYgEe2GjsbM6VD4kKsV5TQIGZ4zskzab48tPUuQsdJJQ8COVNSZXu
9UrpD3YQtAX16wFqHFgfp3iv6sH5WNXgUtW7C7h0QfR3EuA/cdWQLh64JQcYJzlZ
gK3k3UsLAXNthQrQX1SH1RpANfs8gLlfdas0UmhStVgpQKKLuvystnpwwPHdBMgC
ftAl08rMxYR3zlyLdZ1ZOu01hfVsq/zLntKbC0a/qBqTzl/ws44fHoY2VzhdqKnS
tMNtBut2wHD+HEiUr9XYQSRePTgZ+GunyLuDNgeUM3zgPEbTcz/7lm6HE/8CAwEA
AaNCMEAwHQYDVR0OBBYEFHfOvqtYu9Kz+lHR4veqRDc5NbWqMB8GA1UdIwQYMBaA
FNbdYvokLKq83T8MGgkiXdRxf+gFMA0GCSqGSIb3DQEBCwUAA4IBAQA98Nv2qA4k
NdoyiIIAB/gX5r6Ktj2ZOblNdwI0cSl9okghyjGJTetst3xTgkDmPv4HX6y0dnLA
O0jdzSt8W4LgynIzWxoUw0BsRxPoi4+HQUtEAzcSbtGgjWQv+a7K/mqhMk/hyjZI
ceMjzg25gGUVfXBYer7ybJIhPFEn19pvZihZ9TOpdD2G7DOvvpXEpuFM17UYCA+A
u17o4/nDF/MjSdLggvKJqwDTxzRi7REODiVb/dcjNrLPdQZ3Gpd+QiM0bReOMs1n
sO9VksDkSBQZzPI0McL4yXovqGNeGaQX8vBjlY9jCN8eD9XP2HXh2ivC+STpWX0b
5FXYK6UyX/mV
-----END CERTIFICATE-----
