Certificate:
    Data:
        Version: 3 (0x2)
        Serial Number: 4102 (0x1006)
        Signature Algorithm: sha256WithRSAEncryption
        Issuer: C=IN, ST=Kerala, L=Kochi, O=MyOrg, OU=IoT Team, CN=localhost
        Validity
            Not Before: Jul 16 05:52:33 2025 GMT
            Not After : Jul 14 05:52:33 2035 GMT
        Subject: CN=device7
        Subject Public Key Info:
            Public Key Algorithm: rsaEncryption
                Public-Key: (2048 bit)
                Modulus:
                    00:90:cd:08:76:4e:8a:2b:e2:6e:1d:2d:5e:6b:6a:
                    30:a7:6c:0a:27:ae:a9:e2:04:0c:8e:02:f9:e2:49:
                    09:cc:46:40:4a:ba:34:6a:2c:13:84:d9:82:32:3a:
                    28:7a:20:d5:72:54:b4:b7:e9:ea:b7:93:45:44:89:
                    ae:9d:75:7a:1b:19:40:2f:c8:4a:b8:a1:4e:f8:1b:
                    6f:1b:53:f2:f1:c2:39:91:d4:a9:03:61:50:bd:8b:
                    ed:22:12:27:bf:0f:45:19:f0:c6:71:f8:a5:4d:6d:
                    3e:ed:be:d9:f3:b9:77:4e:28:91:8e:cd:f3:10:45:
                    f0:41:7e:92:62:b7:48:c2:11:15:31:ae:06:6f:25:
                    16:f8:a1:a2:e0:b0:ef:33:23:1e:62:50:25:66:09:
                    1b:82:fc:dd:8a:67:fb:22:90:31:6c:0a:76:74:d4:
                    7f:63:d4:a9:a6:93:18:14:fe:80:f4:0a:11:00:8e:
                    d9:9a:3b:93:de:76:41:58:66:a7:f6:4c:09:c8:57:
                    9c:44:02:33:12:3d:5a:00:af:3e:c6:ef:60:cb:bb:
                    6f:21:5d:a8:be:94:a9:8f:33:f7:e7:8d:88:79:e8:
                    fb:2a:6f:b1:b3:21:17:fc:0b:56:db:2d:f4:da:a4:
                    67:fb:83:1a:9c:5d:de:e2:46:de:1f:de:04:46:36:
                    22:b3
                Exponent: 65537 (0x10001)
        X509v3 extensions:
            X509v3 Subject Key Identifier: 
                B0:41:E5:AE:EF:96:23:D9:35:2B:00:17:33:AF:92:D5:0A:A9:52:CE
            X509v3 Authority Key Identifier: 
                D6:DD:62:FA:24:2C:AA:BC:DD:3F:0C:1A:09:22:5D:D4:71:7F:E8:05
    Signature Algorithm: sha256WithRSAEncryption
    Signature Value:
        5a:38:4b:6e:bf:0f:d1:34:ee:d0:33:63:3b:f4:1a:6c:60:a8:
        a9:bf:fb:c6:96:51:63:28:fe:23:71:c0:68:7b:52:ff:e9:52:
        75:0e:21:12:7c:24:eb:ee:83:19:c2:4b:bd:e4:83:a2:b4:af:
        02:ba:9e:68:dd:94:c6:30:9a:17:52:f2:f8:2e:b2:11:6c:e8:
        cc:66:df:bb:3b:69:66:3b:fa:63:72:aa:b0:2b:19:a3:dd:5c:
        93:b9:00:7f:0c:c5:7a:e4:b1:d3:e2:35:8c:aa:04:04:72:42:
        a3:d3:90:5a:56:4e:3c:03:ef:cb:6a:22:be:19:82:2e:63:44:
        e4:ac:52:cd:bc:55:39:46:05:a1:fb:23:b6:16:18:2c:ba:22:
        06:c8:64:55:bf:38:dc:67:01:b9:0e:3c:f2:f3:34:5f:17:4a:
        39:87:18:1a:66:83:fc:29:1b:0c:5c:0f:8d:ab:0a:2f:54:5a:
        f7:d5:bd:1b:9f:01:6b:ff:31:94:1e:ef:53:3b:5f:b0:69:68:
        c6:ea:1f:1e:19:df:a3:5b:d2:4b:75:f4:d3:e6:4d:4f:ac:fb:
        52:1e:16:a4:49:2e:6e:3e:d2:b2:bb:9d:1f:5c:24:76:d3:90:
        9d:93:d9:bf:46:9a:de:be:02:7c:df:83:e5:04:9b:2b:8a:e1:
        a3:f6:78:6f
-----BEGIN CERTIFICATE-----
MIIDNTCCAh2gAwIBAgICEAYwDQYJKoZIhvcNAQELBQAwZTELMAkGA1UEBhMCSU4x
DzANBgNVBAgMBktlcmFsYTEOMAwGA1UEBwwFS29jaGkxDjAMBgNVBAoMBU15T3Jn
MREwDwYDVQQLDAhJb1QgVGVhbTESMBAGA1UEAwwJbG9jYWxob3N0MB4XDTI1MDcx
NjA1NTIzM1oXDTM1MDcxNDA1NTIzM1owEjEQMA4GA1UEAwwHZGV2aWNlNzCCASIw
DQYJKoZIhvcNAQEBBQADggEPADCCAQoCggEBAJDNCHZOiivibh0tXmtqMKdsCieu
qeIEDI4C+eJJCcxGQEq6NGosE4TZgjI6KHog1XJUtLfp6reTRUSJrp11ehsZQC/I
SrihTvgbbxtT8vHCOZHUqQNhUL2L7SISJ78PRRnwxnH4pU1tPu2+2fO5d04okY7N
8xBF8EF+kmK3SMIRFTGuBm8lFvihouCw7zMjHmJQJWYJG4L83Ypn+yKQMWwKdnTU
f2PUqaaTGBT+gPQKEQCO2Zo7k952QVhmp/ZMCchXnEQCMxI9WgCvPsbvYMu7byFd
qL6UqY8z9+eNiHno+ypvsbMhF/wLVtst9NqkZ/uDGpxd3uJG3h/eBEY2IrMCAwEA
AaNCMEAwHQYDVR0OBBYEFLBB5a7vliPZNSsAFzOvktUKqVLOMB8GA1UdIwQYMBaA
FNbdYvokLKq83T8MGgkiXdRxf+gFMA0GCSqGSIb3DQEBCwUAA4IBAQBaOEtuvw/R
NO7QM2M79BpsYKipv/vGllFjKP4jccBoe1L/6VJ1DiESfCTr7oMZwku95IOitK8C
up5o3ZTGMJoXUvL4LrIRbOjMZt+7O2lmO/pjcqqwKxmj3VyTuQB/DMV65LHT4jWM
qgQEckKj05BaVk48A+/LaiK+GYIuY0TkrFLNvFU5RgWh+yO2FhgsuiIGyGRVvzjc
ZwG5Djzy8zRfF0o5hxgaZoP8KRsMXA+NqwovVFr31b0bnwFr/zGUHu9TO1+waWjG
6h8eGd+jW9JLdfTT5k1PrPtSHhakSS5uPtKyu50fXCR205Cdk9m/RprevgJ834Pl
BJsriuGj9nhv
-----END CERTIFICATE-----
