Certificate:
    Data:
        Version: 3 (0x2)
        Serial Number: 4103 (0x1007)
        Signature Algorithm: sha256WithRSAEncryption
        Issuer: C=IN, ST=Kerala, L=Kochi, O=MyOrg, OU=IoT Team, CN=localhost
        Validity
            Not Before: Jul 16 06:01:46 2025 GMT
            Not After : Jul 14 06:01:46 2035 GMT
        Subject: CN=device8
        Subject Public Key Info:
            Public Key Algorithm: rsaEncryption
                Public-Key: (2048 bit)
                Modulus:
                    00:bf:71:7e:24:ae:ee:e2:f3:9d:da:5a:73:47:20:
                    0c:8b:39:4a:e7:10:11:6f:d5:8f:be:e9:67:3a:54:
                    bd:c9:88:8b:bf:cd:5e:f4:b5:b1:b8:0d:06:f8:d3:
                    a9:e5:fb:a5:81:64:9b:87:73:ea:de:1f:a3:1e:36:
                    b6:ca:9d:b6:de:f0:7d:89:f7:01:a7:8e:d9:b8:da:
                    9d:86:94:a1:5b:a4:12:47:43:88:a1:91:61:64:ae:
                    c5:63:bb:38:88:c1:07:4c:0c:4d:5d:ae:0e:88:c1:
                    e2:d4:cb:fc:e6:5f:24:5e:54:dd:9f:3b:c3:e3:13:
                    a3:01:e5:bb:54:66:a3:1f:50:1b:19:e3:a2:b3:37:
                    ba:53:d0:e0:cf:ba:49:c2:c4:24:d1:73:c9:53:15:
                    28:71:12:f4:76:fe:47:cb:7a:5e:2a:be:0a:15:92:
                    c5:05:b4:b1:a2:a5:8a:71:b9:92:2e:d6:f0:61:17:
                    5a:77:1b:0b:ad:a5:d7:72:a6:7c:d6:e4:93:c5:59:
                    16:6b:9d:cf:4a:aa:56:f6:8a:55:46:90:0c:0a:78:
                    aa:c9:93:7b:b7:1a:27:7a:08:a7:6b:cb:c0:5a:13:
                    3d:65:cb:b0:d5:7d:84:2a:da:39:81:4f:68:8c:2d:
                    93:b0:d8:e1:d6:f0:fd:fa:4c:00:c7:53:37:64:e4:
                    56:d9
                Exponent: 65537 (0x10001)
        X509v3 extensions:
            X509v3 Subject Key Identifier: 
                37:15:FF:2E:F1:B3:A9:01:3C:17:51:E8:6E:0D:46:FB:F5:1D:9A:9A
            X509v3 Authority Key Identifier: 
                D6:DD:62:FA:24:2C:AA:BC:DD:3F:0C:1A:09:22:5D:D4:71:7F:E8:05
    Signature Algorithm: sha256WithRSAEncryption
    Signature Value:
        79:9e:a0:e8:18:ac:af:60:8c:87:8a:c0:1b:9f:80:cb:67:c5:
        5b:57:31:30:b9:52:a1:d5:53:a6:a6:6b:50:b2:b7:6a:bd:b2:
        54:d3:df:49:25:c7:c1:5a:18:24:0d:45:77:2c:30:15:2d:a0:
        9f:00:22:2c:d3:1a:96:61:b4:97:3d:4f:b9:48:fa:a2:30:d1:
        da:95:62:0c:f3:cc:37:86:a7:44:27:9c:41:34:07:38:ac:95:
        c1:ff:02:1b:31:d7:89:6b:42:a8:86:0b:2b:f3:58:9b:51:03:
        b5:39:f5:3a:1d:41:25:f4:aa:1a:59:f1:3e:d0:83:a2:82:2e:
        33:0b:32:55:4a:3e:fe:fb:9b:1c:8e:7d:46:b8:eb:00:d9:05:
        28:4c:27:f5:7e:e6:b4:86:c3:39:7e:22:da:f3:5c:de:ec:53:
        f5:fb:68:57:43:d9:20:b8:74:e7:61:1d:86:be:50:2a:53:1a:
        70:31:4d:f7:8d:24:03:bc:2d:13:25:2b:96:21:12:5e:c1:40:
        6e:48:9d:2c:9d:d0:fc:95:d9:2f:d6:39:e9:05:36:ed:b4:68:
        dc:a3:d4:05:82:16:12:41:4d:5f:ef:3f:97:2d:06:64:39:bb:
        f8:24:40:7e:49:71:8d:9e:9f:06:1f:ec:c5:1e:22:ba:fd:ba:
        7a:8a:bb:4a
-----BEGIN CERTIFICATE-----
MIIDNTCCAh2gAwIBAgICEAcwDQYJKoZIhvcNAQELBQAwZTELMAkGA1UEBhMCSU4x
DzANBgNVBAgMBktlcmFsYTEOMAwGA1UEBwwFS29jaGkxDjAMBgNVBAoMBU15T3Jn
MREwDwYDVQQLDAhJb1QgVGVhbTESMBAGA1UEAwwJbG9jYWxob3N0MB4XDTI1MDcx
NjA2MDE0NloXDTM1MDcxNDA2MDE0NlowEjEQMA4GA1UEAwwHZGV2aWNlODCCASIw
DQYJKoZIhvcNAQEBBQADggEPADCCAQoCggEBAL9xfiSu7uLzndpac0cgDIs5SucQ
EW/Vj77pZzpUvcmIi7/NXvS1sbgNBvjTqeX7pYFkm4dz6t4fox42tsqdtt7wfYn3
AaeO2bjanYaUoVukEkdDiKGRYWSuxWO7OIjBB0wMTV2uDojB4tTL/OZfJF5U3Z87
w+MTowHlu1Rmox9QGxnjorM3ulPQ4M+6ScLEJNFzyVMVKHES9Hb+R8t6Xiq+ChWS
xQW0saKlinG5ki7W8GEXWncbC62l13KmfNbkk8VZFmudz0qqVvaKVUaQDAp4qsmT
e7caJ3oIp2vLwFoTPWXLsNV9hCraOYFPaIwtk7DY4dbw/fpMAMdTN2TkVtkCAwEA
AaNCMEAwHQYDVR0OBBYEFDcV/y7xs6kBPBdR6G4NRvv1HZqaMB8GA1UdIwQYMBaA
FNbdYvokLKq83T8MGgkiXdRxf+gFMA0GCSqGSIb3DQEBCwUAA4IBAQB5nqDoGKyv
YIyHisAbn4DLZ8VbVzEwuVKh1VOmpmtQsrdqvbJU099JJcfBWhgkDUV3LDAVLaCf
ACIs0xqWYbSXPU+5SPqiMNHalWIM88w3hqdEJ5xBNAc4rJXB/wIbMdeJa0Kohgsr
81ibUQO1OfU6HUEl9KoaWfE+0IOigi4zCzJVSj7++5scjn1GuOsA2QUoTCf1fua0
hsM5fiLa81ze7FP1+2hXQ9kguHTnYR2GvlAqUxpwMU33jSQDvC0TJSuWIRJewUBu
SJ0sndD8ldkv1jnpBTbttGjco9QFghYSQU1f7z+XLQZkObv4JEB+SXGNnp8GH+zF
HiK6/bp6irtK
-----END CERTIFICATE-----
