Certificate:
    Data:
        Version: 3 (0x2)
        Serial Number: 4104 (0x1008)
        Signature Algorithm: sha256WithRSAEncryption
        Issuer: CN=CA
        Validity
            Not Before: Aug  5 04:22:07 2025 GMT
            Not After : Aug  3 04:22:07 2035 GMT
        Subject: CN=device10
        Subject Public Key Info:
            Public Key Algorithm: rsaEncryption
                Public-Key: (2048 bit)
                Modulus:
                    00:c9:94:56:39:d4:bf:ed:b0:2d:01:81:7d:09:d2:
                    68:11:ff:63:12:10:a6:30:6b:90:d3:2e:ae:67:72:
                    92:f7:a5:1e:7f:ec:ef:64:3a:b0:3f:83:03:86:82:
                    c6:72:40:18:9e:61:cc:0d:88:10:0c:55:a5:ba:21:
                    de:7f:8b:23:04:b7:93:bf:52:d0:5f:2f:7d:26:2e:
                    0f:7e:f4:b1:e5:e0:7a:a6:f4:6c:b4:56:7d:8f:ff:
                    dc:c4:7f:1c:fc:94:f6:d6:69:68:9f:4b:7b:1a:c1:
                    f9:1e:a8:a1:e4:62:f1:23:fb:2e:32:06:c8:2a:a5:
                    0e:b4:73:64:fb:d4:d1:13:52:0d:a3:de:73:8e:d2:
                    f3:9e:65:70:d9:2e:d0:24:4f:a5:49:6f:08:90:81:
                    2e:a8:d1:19:8a:d9:43:af:7e:69:1f:32:76:0d:be:
                    a8:1d:55:cd:b9:c9:e1:ed:bd:ce:5f:93:c1:1f:2f:
                    53:40:2c:6e:bb:06:26:76:1f:11:dd:00:3d:d6:87:
                    55:00:3e:e4:8d:fb:2d:9d:5e:31:4f:be:33:b1:04:
                    d2:d4:fe:f0:b7:72:77:26:b1:d9:21:f0:37:fb:6f:
                    9d:b6:0d:72:17:d6:87:52:fa:d5:d5:e7:71:50:c2:
                    78:9d:7a:3a:a7:c3:be:f2:cc:22:a6:8d:3a:c3:24:
                    0b:6b
                Exponent: 65537 (0x10001)
        X509v3 extensions:
            X509v3 Subject Key Identifier: 
                E1:01:AB:E9:5D:85:E9:E3:64:7F:58:1B:41:F6:E8:F7:0B:88:D9:1E
            X509v3 Authority Key Identifier: 
                37:CB:66:71:EE:4D:7E:5C:3F:A7:44:A9:32:DD:1E:8E:88:65:4C:23
    Signature Algorithm: sha256WithRSAEncryption
    Signature Value:
        94:ab:2c:6a:f0:ac:a0:0a:69:39:89:bb:a5:28:4b:e0:82:df:
        91:42:a8:4e:82:6a:e0:51:c8:3f:81:20:d5:b6:a6:0d:bc:0b:
        69:61:36:fa:99:38:86:c2:59:78:2b:24:f0:7f:c1:45:44:01:
        9f:93:d8:5d:5e:55:3e:6e:2d:ef:db:69:80:f8:2c:47:be:58:
        fa:3a:f8:16:21:f5:7a:12:d2:d5:89:21:ef:94:1a:d5:06:9d:
        78:fb:5c:77:7f:ec:84:47:ee:3f:aa:4c:fa:70:ba:2d:cd:2d:
        22:52:23:62:bb:c2:65:ce:a8:e9:96:7b:a9:fc:8a:8e:9d:8c:
        07:f6:8e:78:c0:74:29:a3:e2:03:44:02:08:6a:6f:65:71:92:
        d9:76:05:ab:96:d3:cc:22:47:2a:d2:09:3a:bf:34:89:64:f7:
        ff:c2:fe:e8:57:48:c6:26:6c:c9:2a:32:a1:fd:1e:b8:ed:fb:
        4e:7f:db:4d:4f:e6:9b:3c:9a:d3:40:e6:0a:36:8f:f5:04:cb:
        13:17:21:d0:0b:14:0c:48:ad:79:59:e1:bf:e4:ef:63:fa:31:
        51:50:86:d0:30:af:99:00:78:b0:ad:4b:0f:4e:71:cf:11:53:
        f9:0d:11:f1:a1:8a:b4:1e:83:e8:32:00:75:24:6c:f1:2b:a7:
        3d:a4:cd:3f
-----BEGIN CERTIFICATE-----
MIIC3jCCAcagAwIBAgICEAgwDQYJKoZIhvcNAQELBQAwDTELMAkGA1UEAwwCQ0Ew
HhcNMjUwODA1MDQyMjA3WhcNMzUwODAzMDQyMjA3WjATMREwDwYDVQQDDAhkZXZp
Y2UxMDCCASIwDQYJKoZIhvcNAQEBBQADggEPADCCAQoCggEBAMmUVjnUv+2wLQGB
fQnSaBH/YxIQpjBrkNMurmdykvelHn/s72Q6sD+DA4aCxnJAGJ5hzA2IEAxVpboh
3n+LIwS3k79S0F8vfSYuD370seXgeqb0bLRWfY//3MR/HPyU9tZpaJ9LexrB+R6o
oeRi8SP7LjIGyCqlDrRzZPvU0RNSDaPec47S855lcNku0CRPpUlvCJCBLqjRGYrZ
Q69+aR8ydg2+qB1VzbnJ4e29zl+TwR8vU0AsbrsGJnYfEd0APdaHVQA+5I37LZ1e
MU++M7EE0tT+8Ldydyax2SHwN/tvnbYNchfWh1L61dXncVDCeJ16OqfDvvLMIqaN
OsMkC2sCAwEAAaNCMEAwHQYDVR0OBBYEFOEBq+ldhenjZH9YG0H26PcLiNkeMB8G
A1UdIwQYMBaAFDfLZnHuTX5cP6dEqTLdHo6IZUwjMA0GCSqGSIb3DQEBCwUAA4IB
AQCUqyxq8KygCmk5ibulKEvggt+RQqhOgmrgUcg/gSDVtqYNvAtpYTb6mTiGwll4
KyTwf8FFRAGfk9hdXlU+bi3v22mA+CxHvlj6OvgWIfV6EtLViSHvlBrVBp14+1x3
f+yER+4/qkz6cLotzS0iUiNiu8Jlzqjplnup/IqOnYwH9o54wHQpo+IDRAIIam9l
cZLZdgWrltPMIkcq0gk6vzSJZPf/wv7oV0jGJmzJKjKh/R647ftOf9tNT+abPJrT
QOYKNo/1BMsTFyHQCxQMSK15WeG/5O9j+jFRUIbQMK+ZAHiwrUsPTnHPEVP5DRHx
oYq0HoPoMgB1JGzxK6c9pM0/
-----END CERTIFICATE-----
